target datalayout = "e-m:e-p270:32:32-p271:32:32-p272:64:64-i64:64-i128:128-f80:128-n8:16:32:64-S128"
target triple = "x86_64-pc-linux-gnu"

%struct.jpeg_decompress_struct = type { ptr, ptr, ptr, ptr, i32, i32, ptr, i32, i32, i32, i32, i32, i32, i32, double, i32, i32, i32, i32, i32, i32, i32, i32, i32, i32, i32, i32, i32, i32, i32, i32, i32, i32, ptr, i32, i32, i32, i32, i32, ptr, [4 x ptr], [4 x ptr], [4 x ptr], i32, ptr, i32, i32, [16 x i8], [16 x i8], [16 x i8], i32, i32, i8, i8, i8, i16, i16, i32, i8, i32, ptr, i32, i32, i32, i32, ptr, i32, [4 x ptr], i32, i32, i32, [10 x i32], i32, i32, i32, i32, i32, ptr, ptr, ptr, ptr, ptr, ptr, ptr, ptr, ptr, ptr, ptr }
%struct.my_cquantizer = type { %struct.jpeg_color_quantizer, ptr, i32, ptr, i32, ptr, i32, ptr }
%struct.jpeg_color_quantizer = type { ptr, ptr, ptr, ptr, ptr }

; Function Attrs: nounwind uwtable
define internal void @pass2_no_dither(ptr noundef %0, ptr noundef %1, ptr noundef %2, i32 noundef %3) #0 {
  %5 = alloca ptr, align 8
  %6 = alloca ptr, align 8
  %7 = alloca ptr, align 8
  %8 = alloca i32, align 4
  %9 = alloca ptr, align 8
  %10 = alloca ptr, align 8
  %11 = alloca ptr, align 8
  %12 = alloca ptr, align 8
  %13 = alloca ptr, align 8
  %14 = alloca i32, align 4
  %15 = alloca i32, align 4
  %16 = alloca i32, align 4
  %17 = alloca i32, align 4
  %18 = alloca i32, align 4
  %19 = alloca i32, align 4
  store ptr %0, ptr %5, align 8, !tbaa !3
  store ptr %1, ptr %6, align 8, !tbaa !81
  store ptr %2, ptr %7, align 8, !tbaa !81
  store i32 %3, ptr %8, align 4, !tbaa !57
  call void @llvm.lifetime.start.p0(i64 8, ptr %9) #3
  %20 = load ptr, ptr %5, align 8, !tbaa !3
  %21 = getelementptr inbounds nuw %struct.jpeg_decompress_struct, ptr %20, i32 0, i32 87
  %22 = load ptr, ptr %21, align 8, !tbaa !42
  store ptr %22, ptr %9, align 8, !tbaa !41
  call void @llvm.lifetime.start.p0(i64 8, ptr %10) #3
  %23 = load ptr, ptr %9, align 8, !tbaa !41
  %24 = getelementptr inbounds nuw %struct.my_cquantizer, ptr %23, i32 0, i32 3
  %25 = load ptr, ptr %24, align 8, !tbaa !56
  store ptr %25, ptr %10, align 8, !tbaa !70
  call void @llvm.lifetime.start.p0(i64 8, ptr %11) #3
  call void @llvm.lifetime.start.p0(i64 8, ptr %12) #3
  call void @llvm.lifetime.start.p0(i64 8, ptr %13) #3
  call void @llvm.lifetime.start.p0(i64 4, ptr %14) #3
  call void @llvm.lifetime.start.p0(i64 4, ptr %15) #3
  call void @llvm.lifetime.start.p0(i64 4, ptr %16) #3
  call void @llvm.lifetime.start.p0(i64 4, ptr %17) #3
  call void @llvm.lifetime.start.p0(i64 4, ptr %18) #3
  call void @llvm.lifetime.start.p0(i64 4, ptr %19) #3
  %26 = load ptr, ptr %5, align 8, !tbaa !3
  %27 = getelementptr inbounds nuw %struct.jpeg_decompress_struct, ptr %26, i32 0, i32 27
  %28 = load i32, ptr %27, align 8, !tbaa !69
  store i32 %28, ptr %19, align 4, !tbaa !57
  store i32 0, ptr %17, align 4, !tbaa !57
  br label %29

29:                                               ; preds = %96, %4
  %30 = load i32, ptr %17, align 4, !tbaa !57
  %31 = load i32, ptr %8, align 4, !tbaa !57
  %32 = icmp slt i32 %30, %31
  br i1 %32, label %33, label %99

33:                                               ; preds = %29
  %34 = load ptr, ptr %6, align 8, !tbaa !81
  %35 = load i32, ptr %17, align 4, !tbaa !57
  %36 = sext i32 %35 to i64
  %37 = getelementptr inbounds ptr, ptr %34, i64 %36
  %38 = load ptr, ptr %37, align 8, !tbaa !82
  store ptr %38, ptr %11, align 8, !tbaa !82
  %39 = load ptr, ptr %7, align 8, !tbaa !81
  %40 = load i32, ptr %17, align 4, !tbaa !57
  %41 = sext i32 %40 to i64
  %42 = getelementptr inbounds ptr, ptr %39, i64 %41
  %43 = load ptr, ptr %42, align 8, !tbaa !82
  store ptr %43, ptr %12, align 8, !tbaa !82
  %44 = load i32, ptr %19, align 4, !tbaa !57
  store i32 %44, ptr %18, align 4, !tbaa !57
  br label %45

45:                                               ; preds = %92, %33
  %46 = load i32, ptr %18, align 4, !tbaa !57
  %47 = icmp ugt i32 %46, 0
  br i1 %47, label %48, label %95

48:                                               ; preds = %45
  %49 = load ptr, ptr %11, align 8, !tbaa !82
  %50 = getelementptr inbounds nuw i8, ptr %49, i32 1
  store ptr %50, ptr %11, align 8, !tbaa !82
  %51 = load i8, ptr %49, align 1, !tbaa !36
  %52 = zext i8 %51 to i32
  %53 = ashr i32 %52, 3
  store i32 %53, ptr %14, align 4, !tbaa !57
  %54 = load ptr, ptr %11, align 8, !tbaa !82
  %55 = getelementptr inbounds nuw i8, ptr %54, i32 1
  store ptr %55, ptr %11, align 8, !tbaa !82
  %56 = load i8, ptr %54, align 1, !tbaa !36
  %57 = zext i8 %56 to i32
  %58 = ashr i32 %57, 2
  store i32 %58, ptr %15, align 4, !tbaa !57
  %59 = load ptr, ptr %11, align 8, !tbaa !82
  %60 = getelementptr inbounds nuw i8, ptr %59, i32 1
  store ptr %60, ptr %11, align 8, !tbaa !82
  %61 = load i8, ptr %59, align 1, !tbaa !36
  %62 = zext i8 %61 to i32
  %63 = ashr i32 %62, 3
  store i32 %63, ptr %16, align 4, !tbaa !57
  %64 = load ptr, ptr %10, align 8, !tbaa !70
  %65 = load i32, ptr %14, align 4, !tbaa !57
  %66 = sext i32 %65 to i64
  %67 = getelementptr inbounds ptr, ptr %64, i64 %66
  %68 = load ptr, ptr %67, align 8, !tbaa !59
  %69 = load i32, ptr %15, align 4, !tbaa !57
  %70 = sext i32 %69 to i64
  %71 = getelementptr inbounds [32 x i16], ptr %68, i64 %70
  %72 = load i32, ptr %16, align 4, !tbaa !57
  %73 = sext i32 %72 to i64
  %74 = getelementptr inbounds [32 x i16], ptr %71, i64 0, i64 %73
  store ptr %74, ptr %13, align 8, !tbaa !59
  %75 = load ptr, ptr %13, align 8, !tbaa !59
  %76 = load i16, ptr %75, align 2, !tbaa !83
  %77 = zext i16 %76 to i32
  %78 = icmp eq i32 %77, 0
  br i1 %78, label %79, label %84

79:                                               ; preds = %48
  %80 = load ptr, ptr %5, align 8, !tbaa !3
  %81 = load i32, ptr %14, align 4, !tbaa !57
  %82 = load i32, ptr %15, align 4, !tbaa !57
  %83 = load i32, ptr %16, align 4, !tbaa !57
  call void @fill_inverse_cmap(ptr noundef %80, i32 noundef %81, i32 noundef %82, i32 noundef %83)
  br label %84

84:                                               ; preds = %79, %48
  %85 = load ptr, ptr %13, align 8, !tbaa !59
  %86 = load i16, ptr %85, align 2, !tbaa !83
  %87 = zext i16 %86 to i32
  %88 = sub nsw i32 %87, 1
  %89 = trunc i32 %88 to i8
  %90 = load ptr, ptr %12, align 8, !tbaa !82
  %91 = getelementptr inbounds nuw i8, ptr %90, i32 1
  store ptr %91, ptr %12, align 8, !tbaa !82
  store i8 %89, ptr %90, align 1, !tbaa !36
  br label %92

92:                                               ; preds = %84
  %93 = load i32, ptr %18, align 4, !tbaa !57
  %94 = add i32 %93, -1
  store i32 %94, ptr %18, align 4, !tbaa !57
  br label %45, !llvm.loop !90

95:                                               ; preds = %45
  br label %96

96:                                               ; preds = %95
  %97 = load i32, ptr %17, align 4, !tbaa !57
  %98 = add nsw i32 %97, 1
  store i32 %98, ptr %17, align 4, !tbaa !57
  br label %29, !llvm.loop !91

99:                                               ; preds = %29
  call void @llvm.lifetime.end.p0(i64 4, ptr %19) #3
  call void @llvm.lifetime.end.p0(i64 4, ptr %18) #3
  call void @llvm.lifetime.end.p0(i64 4, ptr %17) #3
  call void @llvm.lifetime.end.p0(i64 4, ptr %16) #3
  call void @llvm.lifetime.end.p0(i64 4, ptr %15) #3
  call void @llvm.lifetime.end.p0(i64 4, ptr %14) #3
  call void @llvm.lifetime.end.p0(i64 8, ptr %13) #3
  call void @llvm.lifetime.end.p0(i64 8, ptr %12) #3
  call void @llvm.lifetime.end.p0(i64 8, ptr %11) #3
  call void @llvm.lifetime.end.p0(i64 8, ptr %10) #3
  call void @llvm.lifetime.end.p0(i64 8, ptr %9) #3
  ret void
}